target datalayout = "e-m:e-p270:32:32-p271:32:32-p272:64:64-i64:64-i128:128-f80:128-n8:16:32:64-S128"
target triple = "x86_64-unknown-linux-gnu"

%struct.Packet = type { ptr, %union.anon.2, ptr, i32, i64, i32, i32, i32, i32, i8, i16, i16, i8 }
%union.anon.2 = type { ptr }
%struct.timeval = type { i64, i64 }

@trace_events_enabled_count = external global i32, align 4
@message_with_timestamp = external global i8, align 1
@qemu_loglevel = external global i32, align 4
@_TRACE_COLO_COMPARE_MAIN_DSTATE = external global i16, align 2
@.str.29 = private unnamed_addr constant [37 x i8] c"%d@%zu.%06zu:colo_compare_main : %s\0A\00", align 1
@.str.30 = private unnamed_addr constant [24 x i8] c"colo_compare_main : %s\0A\00", align 1
@.str.53 = private unnamed_addr constant [14 x i8] c"compare other\00", align 1
@.str.54 = private unnamed_addr constant [45 x i8] c"Other: payload size of packets are different\00", align 1

; Function Attrs: nounwind sspstrong uwtable
define internal zeroext i1 @qemu_loglevel_mask(i32 noundef %mask) #0 {
entry:
  %mask.addr = alloca i32, align 4
  store i32 %mask, ptr %mask.addr, align 4
  %0 = load i32, ptr @qemu_loglevel, align 4
  %1 = load i32, ptr %mask.addr, align 4
  %and = and i32 %0, %1
  %cmp = icmp ne i32 %and, 0
  ret i1 %cmp
}

; Function Attrs: nounwind sspstrong uwtable
define internal void @_nocheck__trace_colo_compare_main(ptr noundef %chr) #0 {
entry:
  %chr.addr = alloca ptr, align 8
  %_now = alloca %struct.timeval, align 8
  store ptr %chr, ptr %chr.addr, align 8
  %0 = load i32, ptr @trace_events_enabled_count, align 4
  %tobool = icmp ne i32 %0, 0
  %lnot = xor i1 %tobool, true
  %lnot1 = xor i1 %lnot, true
  %lnot.ext = zext i1 %lnot1 to i32
  %conv = sext i32 %lnot.ext to i64
  %tobool2 = icmp ne i64 %conv, 0
  br i1 %tobool2, label %land.lhs.true, label %if.end11

land.lhs.true:                                    ; preds = %entry
  %1 = load i16, ptr @_TRACE_COLO_COMPARE_MAIN_DSTATE, align 2
  %conv3 = zext i16 %1 to i32
  %tobool4 = icmp ne i32 %conv3, 0
  br i1 %tobool4, label %land.lhs.true5, label %if.end11

land.lhs.true5:                                   ; preds = %land.lhs.true
  %call = call zeroext i1 @qemu_loglevel_mask(i32 noundef 32768)
  br i1 %call, label %if.then, label %if.end11

if.then:                                          ; preds = %land.lhs.true5
  %2 = load i8, ptr @message_with_timestamp, align 1
  %tobool7 = trunc i8 %2 to i1
  br i1 %tobool7, label %if.then8, label %if.else

if.then8:                                         ; preds = %if.then
  %call9 = call i32 @gettimeofday(ptr noundef %_now, ptr noundef null) #15
  %call10 = call i32 @qemu_get_thread_id()
  %tv_sec = getelementptr inbounds %struct.timeval, ptr %_now, i32 0, i32 0
  %3 = load i64, ptr %tv_sec, align 8
  %tv_usec = getelementptr inbounds %struct.timeval, ptr %_now, i32 0, i32 1
  %4 = load i64, ptr %tv_usec, align 8
  %5 = load ptr, ptr %chr.addr, align 8
  call void (ptr, ...) @qemu_log(ptr noundef @.str.29, i32 noundef %call10, i64 noundef %3, i64 noundef %4, ptr noundef %5)
  br label %if.end

if.else:                                          ; preds = %if.then
  %6 = load ptr, ptr %chr.addr, align 8
  call void (ptr, ...) @qemu_log(ptr noundef @.str.30, ptr noundef %6)
  br label %if.end

if.end:                                           ; preds = %if.else, %if.then8
  br label %if.end11

if.end11:                                         ; preds = %if.end, %land.lhs.true5, %land.lhs.true, %entry
  ret void
}

; Function Attrs: nounwind sspstrong uwtable
define internal void @trace_colo_compare_main(ptr noundef %chr) #0 {
entry:
  %chr.addr = alloca ptr, align 8
  store ptr %chr, ptr %chr.addr, align 8
  %0 = load ptr, ptr %chr.addr, align 8
  call void @_nocheck__trace_colo_compare_main(ptr noundef %0)
  ret void
}

; Function Attrs: nounwind sspstrong uwtable
define internal i32 @colo_packet_compare_other(ptr noundef %spkt, ptr noundef %ppkt) #0 {
entry:
  %retval = alloca i32, align 4
  %spkt.addr = alloca ptr, align 8
  %ppkt.addr = alloca ptr, align 8
  %offset = alloca i16, align 2
  store ptr %spkt, ptr %spkt.addr, align 8
  store ptr %ppkt, ptr %ppkt.addr, align 8
  %0 = load ptr, ptr %ppkt.addr, align 8
  %vnet_hdr_len = getelementptr inbounds %struct.Packet, ptr %0, i32 0, i32 5
  %1 = load i32, ptr %vnet_hdr_len, align 8
  %conv = trunc i32 %1 to i16
  store i16 %conv, ptr %offset, align 2
  call void @trace_colo_compare_main(ptr noundef @.str.53)
  %2 = load ptr, ptr %ppkt.addr, align 8
  %size = getelementptr inbounds %struct.Packet, ptr %2, i32 0, i32 3
  %3 = load i32, ptr %size, align 8
  %4 = load ptr, ptr %spkt.addr, align 8
  %size1 = getelementptr inbounds %struct.Packet, ptr %4, i32 0, i32 3
  %5 = load i32, ptr %size1, align 8
  %cmp = icmp ne i32 %3, %5
  br i1 %cmp, label %if.then, label %if.end

if.then:                                          ; preds = %entry
  call void @trace_colo_compare_main(ptr noundef @.str.54)
  store i32 -1, ptr %retval, align 4
  br label %return

if.end:                                           ; preds = %entry
  %6 = load ptr, ptr %ppkt.addr, align 8
  %7 = load ptr, ptr %spkt.addr, align 8
  %8 = load i16, ptr %offset, align 2
  %9 = load i16, ptr %offset, align 2
  %10 = load ptr, ptr %ppkt.addr, align 8
  %size3 = getelementptr inbounds %struct.Packet, ptr %10, i32 0, i32 3
  %11 = load i32, ptr %size3, align 8
  %12 = load i16, ptr %offset, align 2
  %conv4 = zext i16 %12 to i32
  %sub = sub i32 %11, %conv4
  %conv5 = trunc i32 %sub to i16
  %call = call i32 @colo_compare_packet_payload(ptr noundef %6, ptr noundef %7, i16 noundef zeroext %8, i16 noundef zeroext %9, i16 noundef zeroext %conv5)
  store i32 %call, ptr %retval, align 4
  br label %return

return:                                           ; preds = %if.end, %if.then
  %13 = load i32, ptr %retval, align 4
  ret i32 %13
}