; Function Attrs: nounwind sspstrong uwtable
define internal i32 @colo_packet_compare_other(ptr noundef readonly captures(none) %spkt, ptr noundef readonly captures(none) %ppkt) #0 {
entry:
  %_now.i.i7 = alloca %struct.timeval, align 8
  %_now.i.i = alloca %struct.timeval, align 8
  %vnet_hdr_len = getelementptr inbounds nuw i8, ptr %ppkt, i64 40
  %0 = load i32, ptr %vnet_hdr_len, align 8
  call void @llvm.lifetime.start.p0(i64 16, ptr nonnull %_now.i.i)
  %1 = load i32, ptr @trace_events_enabled_count, align 4
  %tobool.i.i = icmp ne i32 %1, 0
  %2 = load i16, ptr @_TRACE_COLO_COMPARE_MAIN_DSTATE, align 2
  %tobool4.i.i = icmp ne i16 %2, 0
  %or.cond.i.i = select i1 %tobool.i.i, i1 %tobool4.i.i, i1 false
  br i1 %or.cond.i.i, label %land.lhs.true5.i.i, label %trace_colo_compare_main.exit

land.lhs.true5.i.i:                               ; preds = %entry
  %3 = load i32, ptr @qemu_loglevel, align 4
  %and.i.i.i = and i32 %3, 32768
  %cmp.i.not.i.i = icmp eq i32 %and.i.i.i, 0
  br i1 %cmp.i.not.i.i, label %trace_colo_compare_main.exit, label %if.then.i.i

if.then.i.i:                                      ; preds = %land.lhs.true5.i.i
  %4 = load i8, ptr @message_with_timestamp, align 1
  %tobool7.i.i = trunc i8 %4 to i1
  br i1 %tobool7.i.i, label %if.then8.i.i, label %if.else.i.i

if.then8.i.i:                                     ; preds = %if.then.i.i
  %call9.i.i = call i32 @gettimeofday(ptr noundef nonnull %_now.i.i, ptr noundef null) #16
  %call10.i.i = tail call i32 @qemu_get_thread_id() #16
  %5 = load i64, ptr %_now.i.i, align 8
  %tv_usec.i.i = getelementptr inbounds nuw i8, ptr %_now.i.i, i64 8
  %6 = load i64, ptr %tv_usec.i.i, align 8
  tail call void (ptr, ...) @qemu_log(ptr noundef nonnull @.str.29, i32 noundef %call10.i.i, i64 noundef %5, i64 noundef %6, ptr noundef nonnull @.str.53) #16
  br label %trace_colo_compare_main.exit

if.else.i.i:                                      ; preds = %if.then.i.i
  tail call void (ptr, ...) @qemu_log(ptr noundef nonnull @.str.30, ptr noundef nonnull @.str.53) #16
  br label %trace_colo_compare_main.exit

trace_colo_compare_main.exit:                     ; preds = %entry, %land.lhs.true5.i.i, %if.then8.i.i, %if.else.i.i
  call void @llvm.lifetime.end.p0(i64 16, ptr nonnull %_now.i.i)
  %size = getelementptr inbounds nuw i8, ptr %ppkt, i64 24
  %7 = load i32, ptr %size, align 8
  %size1 = getelementptr inbounds nuw i8, ptr %spkt, i64 24
  %8 = load i32, ptr %size1, align 8
  %cmp.not = icmp eq i32 %7, %8
  br i1 %cmp.not, label %if.end, label %if.then

if.then:                                          ; preds = %trace_colo_compare_main.exit
  call void @llvm.lifetime.start.p0(i64 16, ptr nonnull %_now.i.i7)
  %9 = load i32, ptr @trace_events_enabled_count, align 4
  %tobool.i.i8 = icmp ne i32 %9, 0
  %10 = load i16, ptr @_TRACE_COLO_COMPARE_MAIN_DSTATE, align 2
  %tobool4.i.i9 = icmp ne i16 %10, 0
  %or.cond.i.i10 = select i1 %tobool.i.i8, i1 %tobool4.i.i9, i1 false
  br i1 %or.cond.i.i10, label %land.lhs.true5.i.i11, label %trace_colo_compare_main.exit21

land.lhs.true5.i.i11:                             ; preds = %if.then
  %11 = load i32, ptr @qemu_loglevel, align 4
  %and.i.i.i12 = and i32 %11, 32768
  %cmp.i.not.i.i13 = icmp eq i32 %and.i.i.i12, 0
  br i1 %cmp.i.not.i.i13, label %trace_colo_compare_main.exit21, label %if.then.i.i14

if.then.i.i14:                                    ; preds = %land.lhs.true5.i.i11
  %12 = load i8, ptr @message_with_timestamp, align 1
  %tobool7.i.i15 = trunc i8 %12 to i1
  br i1 %tobool7.i.i15, label %if.then8.i.i17, label %if.else.i.i16

if.then8.i.i17:                                   ; preds = %if.then.i.i14
  %call9.i.i18 = call i32 @gettimeofday(ptr noundef nonnull %_now.i.i7, ptr noundef null) #16
  %call10.i.i19 = tail call i32 @qemu_get_thread_id() #16
  %13 = load i64, ptr %_now.i.i7, align 8
  %tv_usec.i.i20 = getelementptr inbounds nuw i8, ptr %_now.i.i7, i64 8
  %14 = load i64, ptr %tv_usec.i.i20, align 8
  tail call void (ptr, ...) @qemu_log(ptr noundef nonnull @.str.29, i32 noundef %call10.i.i19, i64 noundef %13, i64 noundef %14, ptr noundef nonnull @.str.54) #16
  br label %trace_colo_compare_main.exit21

if.else.i.i16:                                    ; preds = %if.then.i.i14
  tail call void (ptr, ...) @qemu_log(ptr noundef nonnull @.str.30, ptr noundef nonnull @.str.54) #16
  br label %trace_colo_compare_main.exit21

trace_colo_compare_main.exit21:                   ; preds = %if.then, %land.lhs.true5.i.i11, %if.then8.i.i17, %if.else.i.i16
  call void @llvm.lifetime.end.p0(i64 16, ptr nonnull %_now.i.i7)
  br label %return

if.end:                                           ; preds = %trace_colo_compare_main.exit
  %conv = trunc i32 %0 to i16
  %sub = sub i32 %7, %0
  %conv5 = trunc i32 %sub to i16
  %call = tail call fastcc i32 @colo_compare_packet_payload(ptr noundef nonnull %ppkt, ptr noundef nonnull %spkt, i16 noundef zeroext %conv, i16 noundef zeroext %conv, i16 noundef zeroext %conv5)
  br label %return

return:                                           ; preds = %if.end, %trace_colo_compare_main.exit21
  %retval.0 = phi i32 [ -1, %trace_colo_compare_main.exit21 ], [ %call, %if.end ]
  ret i32 %retval.0
}